target datalayout = "e-m:e-p270:32:32-p271:32:32-p272:64:64-i64:64-i128:128-f80:128-n8:16:32:64-S128"
target triple = "x86_64-pc-linux-gnu"

%struct.GlobalContext = type { %struct.HTable, ptr, ptr, ptr, ptr, ptr, ptr, ptr, ptr, i8, i32, i32, i32, ptr, ptr, %struct.HTable, %struct.HTable, %struct.Module_, %struct.DeclTable, %struct.DeclTable, %struct.Path_, ptr, ptr, ptr, ptr, ptr, ptr, ptr, [65536 x ptr], ptr, ptr, ptr }
%struct.HTable = type { i32, ptr }
%struct.Module_ = type { ptr, ptr, ptr, i16, i32, ptr, %struct.HTable, ptr, ptr, ptr, ptr, ptr, ptr, ptr, ptr, ptr }
%struct.DeclTable = type { i32, i32, i32, ptr }
%struct.Path_ = type { %union.SourceSpan, ptr, i32 }
%union.SourceSpan = type { i64 }
%struct.Decl_ = type { ptr, ptr, %union.SourceSpan, i64, %union.anon, i32, %union.anon.0, i64, ptr, ptr, ptr, %union.anon.1 }
%union.anon = type { ptr }
%union.anon.0 = type { i16 }
%union.anon.1 = type { %struct.FuncDecl }
%struct.FuncDecl = type { i32, [4 x i8], %struct.Signature_, i32, i32, %union.anon.8 }
%struct.Signature_ = type <{ %struct.CalleeAttributes, i16, i8, i32, i32, [4 x i8], ptr }>
%struct.CalleeAttributes = type { i8 }
%union.anon.8 = type { %struct.anon.9 }
%struct.anon.9 = type { i16, %union.anon.10 }
%union.anon.10 = type { ptr }
%struct.VHeader_ = type { i32, i32, [0 x i8] }
%struct.CompilationUnit_ = type { ptr, ptr, ptr, ptr, ptr, ptr, ptr, ptr, ptr, ptr, i32, ptr, i8, i8, i8, i8, ptr, ptr, ptr, ptr, ptr, ptr, ptr, ptr, ptr, ptr, ptr, ptr, %struct.HTable, i32, ptr, ptr, %struct.anon.88 }
%struct.anon.88 = type { ptr, ptr }
%struct.NameResolve = type { ptr, ptr, ptr, ptr, %union.SourceSpan, ptr, i8, i8 }
%struct.SemaContext_ = type { ptr, ptr, ptr, %struct.CallEnv, ptr, %union.SourceSpan, i32, i32, ptr, i32, ptr, i32, i32, ptr, ptr, i32, %struct.anon.89, ptr, ptr, ptr, %struct.DynamicScope_, ptr }
%struct.CallEnv = type { i16, ptr, %union.anon.60 }
%union.anon.60 = type { ptr }
%struct.anon.89 = type { i32, ptr, ptr, ptr, ptr, ptr, ptr, ptr, ptr, ptr, i8, ptr }
%struct.DynamicScope_ = type { i32, i8, i32, i32, i32, i32, i32, ptr, i32 }
%struct.VarDecl_ = type { i32, i32, %union.anon.14, %union.anon.15 }
%union.anon.14 = type { ptr }
%union.anon.15 = type { %struct.anon.16 }
%struct.anon.16 = type { ptr, %union.SourceSpan }

@global_context = external global %struct.GlobalContext, align 8

; Function Attrs: nounwind uwtable
define internal ptr @sema_find_ct_local(ptr noundef %0, ptr noundef %1) #0 {
  %3 = alloca i32, align 4
  %4 = alloca ptr, align 8
  %5 = alloca ptr, align 8
  %6 = alloca ptr, align 8
  %7 = alloca ptr, align 8
  %8 = alloca ptr, align 8
  %9 = alloca ptr, align 8
  %10 = alloca ptr, align 8
  %11 = alloca i32, align 4
  %12 = alloca i32, align 4
  %13 = alloca ptr, align 8
  store ptr %0, ptr %7, align 8
  store ptr %1, ptr %8, align 8
  %14 = load ptr, ptr %7, align 8
  %15 = getelementptr inbounds %struct.SemaContext_, ptr %14, i32 0, i32 16
  %16 = getelementptr inbounds %struct.anon.89, ptr %15, i32 0, i32 11
  %17 = load ptr, ptr %16, align 8
  store ptr %17, ptr %9, align 8
  %18 = load ptr, ptr %9, align 8
  store ptr %18, ptr %10, align 8
  %19 = load ptr, ptr %10, align 8
  store ptr %19, ptr %4, align 8
  %20 = load ptr, ptr %4, align 8
  %21 = icmp ne ptr %20, null
  br i1 %21, label %23, label %22

22:                                               ; preds = %2
  store i32 0, ptr %3, align 4
  br label %28

23:                                               ; preds = %2
  %24 = load ptr, ptr %4, align 8
  store ptr %24, ptr %5, align 8
  %25 = load ptr, ptr %5, align 8
  %26 = getelementptr inbounds %struct.VHeader_, ptr %25, i64 -1
  %27 = load i32, ptr %26, align 4
  store i32 %27, ptr %3, align 4
  br label %28

28:                                               ; preds = %23, %22
  %29 = load i32, ptr %3, align 4
  store i32 %29, ptr %11, align 4
  store i32 0, ptr %12, align 4
  br label %30

30:                                               ; preds = %48, %28
  %31 = load i32, ptr %12, align 4
  %32 = load i32, ptr %11, align 4
  %33 = icmp ult i32 %31, %32
  br i1 %33, label %34, label %51

34:                                               ; preds = %30
  %35 = load ptr, ptr %10, align 8
  %36 = load i32, ptr %12, align 4
  %37 = zext i32 %36 to i64
  %38 = getelementptr inbounds ptr, ptr %35, i64 %37
  %39 = load ptr, ptr %38, align 8
  store ptr %39, ptr %13, align 8
  %40 = load ptr, ptr %13, align 8
  %41 = getelementptr inbounds %struct.Decl_, ptr %40, i32 0, i32 0
  %42 = load ptr, ptr %41, align 8
  %43 = load ptr, ptr %8, align 8
  %44 = icmp eq ptr %42, %43
  br i1 %44, label %45, label %47

45:                                               ; preds = %34
  %46 = load ptr, ptr %13, align 8
  store ptr %46, ptr %6, align 8
  br label %54

47:                                               ; preds = %34
  br label %48

48:                                               ; preds = %47
  %49 = load i32, ptr %12, align 4
  %50 = add i32 %49, 1
  store i32 %50, ptr %12, align 4
  br label %30, !llvm.loop !45

51:                                               ; preds = %30
  br label %52

52:                                               ; preds = %51
  br label %53

53:                                               ; preds = %52
  store ptr null, ptr %6, align 8
  br label %54

54:                                               ; preds = %53, %45
  %55 = load ptr, ptr %6, align 8
  ret ptr %55
}

; Function Attrs: nounwind uwtable
define internal ptr @sema_find_local(ptr noundef %0, ptr noundef %1) #0 {
  %3 = alloca ptr, align 8
  %4 = alloca ptr, align 8
  %5 = alloca ptr, align 8
  %6 = alloca ptr, align 8
  %7 = alloca i64, align 8
  %8 = alloca i64, align 8
  %9 = alloca ptr, align 8
  %10 = alloca i32, align 4
  store ptr %0, ptr %4, align 8
  store ptr %1, ptr %5, align 8
  %11 = load ptr, ptr %5, align 8
  %12 = getelementptr inbounds i8, ptr %11, i64 0
  %13 = load i8, ptr %12, align 1
  %14 = sext i8 %13 to i32
  %15 = icmp eq i32 %14, 36
  br i1 %15, label %16, label %20

16:                                               ; preds = %2
  %17 = load ptr, ptr %4, align 8
  %18 = load ptr, ptr %5, align 8
  %19 = call ptr @sema_find_ct_local(ptr noundef %17, ptr noundef %18)
  store ptr %19, ptr %3, align 8
  br label %84

20:                                               ; preds = %2
  %21 = load ptr, ptr %4, align 8
  %22 = getelementptr inbounds %struct.SemaContext_, ptr %21, i32 0, i32 19
  %23 = load ptr, ptr %22, align 8
  store ptr %23, ptr %6, align 8
  %24 = load ptr, ptr %6, align 8
  %25 = icmp ne ptr %24, null
  br i1 %25, label %26, label %32

26:                                               ; preds = %20
  %27 = load ptr, ptr %4, align 8
  %28 = getelementptr inbounds %struct.SemaContext_, ptr %27, i32 0, i32 20
  %29 = getelementptr inbounds %struct.DynamicScope_, ptr %28, i32 0, i32 4
  %30 = load i32, ptr %29, align 8
  %31 = icmp ne i32 %30, 0
  br i1 %31, label %33, label %32

32:                                               ; preds = %26, %20
  store ptr null, ptr %3, align 8
  br label %84

33:                                               ; preds = %26
  store i64 0, ptr %7, align 8
  %34 = load ptr, ptr %4, align 8
  %35 = getelementptr inbounds %struct.SemaContext_, ptr %34, i32 0, i32 20
  %36 = getelementptr inbounds %struct.DynamicScope_, ptr %35, i32 0, i32 4
  %37 = load i32, ptr %36, align 8
  %38 = sub i32 %37, 1
  %39 = zext i32 %38 to i64
  store i64 %39, ptr %8, align 8
  br label %40

40:                                               ; preds = %80, %33
  %41 = load i64, ptr %8, align 8
  %42 = load i64, ptr %7, align 8
  %43 = icmp sge i64 %41, %42
  br i1 %43, label %44, label %83

44:                                               ; preds = %40
  %45 = load ptr, ptr %6, align 8
  %46 = load i64, ptr %8, align 8
  %47 = getelementptr inbounds ptr, ptr %45, i64 %46
  %48 = load ptr, ptr %47, align 8
  store ptr %48, ptr %9, align 8
  %49 = load ptr, ptr %9, align 8
  %50 = getelementptr inbounds %struct.Decl_, ptr %49, i32 0, i32 0
  %51 = load ptr, ptr %50, align 8
  %52 = load ptr, ptr %5, align 8
  %53 = icmp eq ptr %51, %52
  br i1 %53, label %54, label %80

54:                                               ; preds = %44
  %55 = load ptr, ptr %9, align 8
  %56 = getelementptr inbounds %struct.Decl_, ptr %55, i32 0, i32 3
  %57 = load i64, ptr %56, align 8
  %58 = and i64 %57, 127
  %59 = trunc i64 %58 to i32
  %60 = icmp eq i32 %59, 26
  br i1 %60, label %61, label %78

61:                                               ; preds = %54
  %62 = load ptr, ptr %9, align 8
  %63 = getelementptr inbounds %struct.Decl_, ptr %62, i32 0, i32 11
  %64 = load i32, ptr %63, align 8
  %65 = and i32 %64, 255
  store i32 %65, ptr %10, align 4
  %66 = load i32, ptr %10, align 4
  %67 = icmp eq i32 %66, 9
  br i1 %67, label %68, label %69

68:                                               ; preds = %61
  store ptr null, ptr %3, align 8
  br label %84

69:                                               ; preds = %61
  %70 = load i32, ptr %10, align 4
  %71 = icmp eq i32 %70, 10
  br i1 %71, label %72, label %77

72:                                               ; preds = %69
  %73 = load ptr, ptr %9, align 8
  %74 = getelementptr inbounds %struct.Decl_, ptr %73, i32 0, i32 11
  %75 = getelementptr inbounds %struct.VarDecl_, ptr %74, i32 0, i32 2
  %76 = load ptr, ptr %75, align 8
  store ptr %76, ptr %3, align 8
  br label %84

77:                                               ; preds = %69
  br label %78

78:                                               ; preds = %77, %54
  %79 = load ptr, ptr %9, align 8
  store ptr %79, ptr %3, align 8
  br label %84

80:                                               ; preds = %44
  %81 = load i64, ptr %8, align 8
  %82 = add nsw i64 %81, -1
  store i64 %82, ptr %8, align 8
  br label %40, !llvm.loop !34

83:                                               ; preds = %40
  store ptr null, ptr %3, align 8
  br label %84

84:                                               ; preds = %83, %78, %72, %68, %32, %16
  %85 = load ptr, ptr %3, align 8
  ret ptr %85
}

; Function Attrs: nounwind uwtable
define internal ptr @sema_resolve_no_path_symbol(ptr noundef %0, ptr noundef %1) #0 {
  %3 = alloca ptr, align 8
  %4 = alloca ptr, align 8
  %5 = alloca ptr, align 8
  %6 = alloca ptr, align 8
  %7 = alloca ptr, align 8
  %8 = alloca ptr, align 8
  store ptr %0, ptr %4, align 8
  store ptr %1, ptr %5, align 8
  %9 = load ptr, ptr %5, align 8
  %10 = getelementptr inbounds %struct.NameResolve, ptr %9, i32 0, i32 5
  %11 = load ptr, ptr %10, align 8
  store ptr %11, ptr %6, align 8
  %12 = load ptr, ptr %4, align 8
  %13 = load ptr, ptr %6, align 8
  %14 = call ptr @sema_find_local(ptr noundef %12, ptr noundef %13)
  store ptr %14, ptr %7, align 8
  %15 = load ptr, ptr %7, align 8
  %16 = icmp ne ptr %15, null
  br i1 %16, label %17, label %19

17:                                               ; preds = %2
  %18 = load ptr, ptr %7, align 8
  store ptr %18, ptr %3, align 8
  br label %59

19:                                               ; preds = %2
  %20 = load ptr, ptr %4, align 8
  %21 = getelementptr inbounds %struct.SemaContext_, ptr %20, i32 0, i32 1
  %22 = load ptr, ptr %21, align 8
  store ptr %22, ptr %8, align 8
  %23 = load ptr, ptr %8, align 8
  %24 = getelementptr inbounds %struct.CompilationUnit_, ptr %23, i32 0, i32 28
  %25 = load ptr, ptr %6, align 8
  %26 = call ptr @htable_get(ptr noundef %24, ptr noundef %25)
  store ptr %26, ptr %7, align 8
  %27 = load ptr, ptr %7, align 8
  %28 = icmp ne ptr %27, null
  br i1 %28, label %29, label %31

29:                                               ; preds = %19
  %30 = load ptr, ptr %7, align 8
  store ptr %30, ptr %3, align 8
  br label %59

31:                                               ; preds = %19
  %32 = load ptr, ptr %8, align 8
  %33 = getelementptr inbounds %struct.CompilationUnit_, ptr %32, i32 0, i32 0
  %34 = load ptr, ptr %33, align 8
  %35 = load ptr, ptr %6, align 8
  %36 = call ptr @module_find_symbol(ptr noundef %34, ptr noundef %35)
  store ptr %36, ptr %7, align 8
  %37 = load ptr, ptr %7, align 8
  %38 = icmp ne ptr %37, null
  br i1 %38, label %39, label %41

39:                                               ; preds = %31
  %40 = load ptr, ptr %7, align 8
  store ptr %40, ptr %3, align 8
  br label %59

41:                                               ; preds = %31
  %42 = load ptr, ptr %8, align 8
  %43 = getelementptr inbounds %struct.CompilationUnit_, ptr %42, i32 0, i32 2
  %44 = load ptr, ptr %43, align 8
  %45 = load ptr, ptr %5, align 8
  %46 = call ptr @sema_find_decl_in_private_imports(ptr noundef %44, ptr noundef %45, i1 noundef zeroext false)
  store ptr %46, ptr %7, align 8
  %47 = load ptr, ptr %7, align 8
  %48 = icmp ne ptr %47, null
  br i1 %48, label %49, label %51

49:                                               ; preds = %41
  %50 = load ptr, ptr %7, align 8
  br label %57

51:                                               ; preds = %41
  %52 = load ptr, ptr %4, align 8
  %53 = getelementptr inbounds %struct.SemaContext_, ptr %52, i32 0, i32 1
  %54 = load ptr, ptr %53, align 8
  %55 = load ptr, ptr %5, align 8
  %56 = call ptr @sema_find_decl_in_global(ptr noundef %54, ptr noundef getelementptr inbounds (%struct.GlobalContext, ptr @global_context, i32 0, i32 18), ptr noundef null, ptr noundef %55, i1 noundef zeroext false)
  br label %57

57:                                               ; preds = %51, %49
  %58 = phi ptr [ %50, %49 ], [ %56, %51 ]
  store ptr %58, ptr %3, align 8
  br label %59

59:                                               ; preds = %57, %39, %29, %17
  %60 = load ptr, ptr %3, align 8
  ret ptr %60
}