; Function Attrs: nounwind uwtable
define internal fastcc ptr @sema_resolve_no_path_symbol(ptr nocapture noundef readonly %0, ptr nocapture noundef %1) unnamed_addr #2 {
  %3 = getelementptr inbounds i8, ptr %1, i64 40
  %4 = load ptr, ptr %3, align 8
  %5 = load i8, ptr %4, align 1
  %6 = icmp eq i8 %5, 36
  br i1 %6, label %7, label %17

7:                                                ; preds = %2
  %8 = getelementptr i8, ptr %0, i64 216
  %.val.i = load ptr, ptr %8, align 8
  %.not.i.i = icmp eq ptr %.val.i, null
  br i1 %.not.i.i, label %sema_find_local.exit.thread, label %9

9:                                                ; preds = %7
  %10 = getelementptr inbounds i8, ptr %.val.i, i64 -8
  %11 = load i32, ptr %10, align 4
  %.not4.i.i = icmp eq i32 %11, 0
  br i1 %.not4.i.i, label %sema_find_local.exit.thread, label %.lr.ph.preheader.i.i

.lr.ph.preheader.i.i:                             ; preds = %9
  %wide.trip.count.i.i = zext i32 %11 to i64
  br label %.lr.ph.i.i

12:                                               ; preds = %.lr.ph.i.i
  %indvars.iv.next.i.i = add nuw nsw i64 %indvars.iv.i.i, 1
  %exitcond.not.i.i = icmp eq i64 %indvars.iv.next.i.i, %wide.trip.count.i.i
  br i1 %exitcond.not.i.i, label %sema_find_local.exit.thread, label %.lr.ph.i.i, !llvm.loop !31

.lr.ph.i.i:                                       ; preds = %12, %.lr.ph.preheader.i.i
  %indvars.iv.i.i = phi i64 [ 0, %.lr.ph.preheader.i.i ], [ %indvars.iv.next.i.i, %12 ]
  %13 = getelementptr inbounds ptr, ptr %.val.i, i64 %indvars.iv.i.i
  %14 = load ptr, ptr %13, align 8
  %15 = load ptr, ptr %14, align 8
  %16 = icmp eq ptr %15, %4
  br i1 %16, label %sema_find_local.exit.thread31, label %12

17:                                               ; preds = %2
  %18 = getelementptr inbounds i8, ptr %0, i64 240
  %19 = load ptr, ptr %18, align 8
  %.not.i = icmp eq ptr %19, null
  br i1 %.not.i, label %sema_find_local.exit.thread, label %20

20:                                               ; preds = %17
  %21 = getelementptr inbounds i8, ptr %0, i64 264
  %22 = load i32, ptr %21, align 8
  %.not24.i = icmp eq i32 %22, 0
  br i1 %.not24.i, label %sema_find_local.exit.thread, label %23

23:                                               ; preds = %20
  %24 = add i32 %22, -1
  %25 = zext i32 %24 to i64
  br label %29

26:                                               ; preds = %29
  %27 = add nsw i64 %.02026.i, -1
  %28 = icmp sgt i64 %.02026.i, 0
  br i1 %28, label %29, label %sema_find_local.exit.thread, !llvm.loop !32

29:                                               ; preds = %26, %23
  %.02026.i = phi i64 [ %25, %23 ], [ %27, %26 ]
  %30 = getelementptr inbounds ptr, ptr %19, i64 %.02026.i
  %31 = load ptr, ptr %30, align 8
  %32 = load ptr, ptr %31, align 8
  %33 = icmp eq ptr %32, %4
  br i1 %33, label %34, label %26

34:                                               ; preds = %29
  %35 = getelementptr inbounds i8, ptr %31, i64 24
  %36 = load i64, ptr %35, align 8
  %37 = and i64 %36, 127
  %38 = icmp eq i64 %37, 26
  br i1 %38, label %39, label %sema_find_local.exit.thread31

39:                                               ; preds = %34
  %40 = getelementptr inbounds i8, ptr %31, i64 80
  %41 = load i32, ptr %40, align 8
  %trunc.i = trunc i32 %41 to i8
  switch i8 %trunc.i, label %sema_find_local.exit.thread31 [
    i8 9, label %sema_find_local.exit.thread
    i8 10, label %sema_find_local.exit
  ]

sema_find_local.exit:                             ; preds = %39
  %42 = getelementptr inbounds i8, ptr %31, i64 88
  %43 = load ptr, ptr %42, align 8
  %.not = icmp eq ptr %43, null
  br i1 %.not, label %sema_find_local.exit.thread, label %sema_find_local.exit.thread31

sema_find_local.exit.thread:                      ; preds = %26, %12, %7, %9, %39, %17, %20, %sema_find_local.exit
  %44 = getelementptr inbounds i8, ptr %0, i64 8
  %45 = load ptr, ptr %44, align 8
  %46 = getelementptr inbounds i8, ptr %45, i64 200
  %47 = tail call ptr @htable_get(ptr noundef nonnull %46, ptr noundef nonnull %4) #10
  %.not25 = icmp eq ptr %47, null
  br i1 %.not25, label %48, label %sema_find_local.exit.thread31

48:                                               ; preds = %sema_find_local.exit.thread
  %49 = load ptr, ptr %45, align 8
  %50 = tail call ptr @module_find_symbol(ptr noundef %49, ptr noundef nonnull %4) #10
  %.not26 = icmp eq ptr %50, null
  br i1 %.not26, label %51, label %sema_find_local.exit.thread31

51:                                               ; preds = %48
  %52 = getelementptr inbounds i8, ptr %45, i64 16
  %53 = load ptr, ptr %52, align 8
  %54 = tail call fastcc ptr @sema_find_decl_in_private_imports(ptr noundef %53, ptr noundef %1, i1 noundef zeroext false)
  %.not27 = icmp eq ptr %54, null
  br i1 %.not27, label %55, label %sema_find_local.exit.thread31

55:                                               ; preds = %51
  %56 = load ptr, ptr %44, align 8
  %57 = tail call fastcc ptr @sema_find_decl_in_global(ptr noundef %56, ptr noundef nonnull getelementptr inbounds (%struct.GlobalContext, ptr @global_context, i64 0, i32 18), ptr noundef null, ptr noundef %1, i1 noundef zeroext false)
  br label %sema_find_local.exit.thread31

sema_find_local.exit.thread31:                    ; preds = %.lr.ph.i.i, %34, %39, %55, %51, %48, %sema_find_local.exit.thread, %sema_find_local.exit
  %.0 = phi ptr [ %43, %sema_find_local.exit ], [ %47, %sema_find_local.exit.thread ], [ %50, %48 ], [ %57, %55 ], [ %54, %51 ], [ %31, %39 ], [ %31, %34 ], [ %14, %.lr.ph.i.i ]
  ret ptr %.0
}